; Listing generated by Microsoft (R) Optimizing Compiler Version 19.16.27031.1 

include listing.inc

INCLUDELIB LIBCMT
INCLUDELIB OLDNAMES

PUBLIC	?XInputGetStateStub@@YAKKPEAU_XINPUT_STATE@@@Z	; XInputGetStateStub
PUBLIC	?XInputSetStateStub@@YAKKPEAU_XINPUT_VIBRATION@@@Z ; XInputSetStateStub
CONST	SEGMENT
$SG90112 DB	'WM_ACTIVATEAPP', 0aH, 00H
$SG90146 DB	'handmadeHeroWindowClass', 00H
$SG90149 DB	'Handmade Hero', 00H
	ORG $+2
$SG90108 DB	'WM_DESTROY', 0aH, 00H
	ORG $+4
$SG90110 DB	'WM_CLOSE', 0aH, 00H
CONST	ENDS
PUBLIC	WinMain
PUBLIC	?Win32GetWindowDimension@@YA?AUwin32_window_dimension@@PEAUHWND__@@@Z ; Win32GetWindowDimension
PUBLIC	?Win32MainWindowCallback@@YA_JPEAUHWND__@@I_K_J@Z ; Win32MainWindowCallback
EXTRN	memset:PROC
EXTRN	__imp_OutputDebugStringA:PROC
EXTRN	__imp_VirtualAlloc:PROC
EXTRN	__imp_VirtualFree:PROC
EXTRN	__imp_StretchDIBits:PROC
EXTRN	__imp_TranslateMessage:PROC
EXTRN	__imp_DispatchMessageA:PROC
EXTRN	__imp_PeekMessageA:PROC
EXTRN	__imp_DefWindowProcA:PROC
EXTRN	__imp_RegisterClassA:PROC
EXTRN	__imp_CreateWindowExA:PROC
EXTRN	__imp_GetDC:PROC
EXTRN	__imp_ReleaseDC:PROC
EXTRN	__imp_BeginPaint:PROC
EXTRN	__imp_EndPaint:PROC
EXTRN	__imp_GetClientRect:PROC
EXTRN	__GSHandlerCheck:PROC
EXTRN	__security_check_cookie:PROC
EXTRN	__security_cookie:QWORD
_BSS	SEGMENT
?Running@@3_NA DB 01H DUP (?)				; Running
	ALIGN	4

?GlobalBackBuffer@@3Uwin32_offscreen_buffer@@A DB 048H DUP (?) ; GlobalBackBuffer
_BSS	ENDS
pdata	SEGMENT
$pdata$WinMain DD imagerel $LN17
	DD	imagerel $LN17+746
	DD	imagerel $unwind$WinMain
$pdata$?Win32GetWindowDimension@@YA?AUwin32_window_dimension@@PEAUHWND__@@@Z DD imagerel $LN3
	DD	imagerel $LN3+95
	DD	imagerel $unwind$?Win32GetWindowDimension@@YA?AUwin32_window_dimension@@PEAUHWND__@@@Z
$pdata$?RenderWeirdGradient@@YAXUwin32_offscreen_buffer@@HH@Z DD imagerel ?RenderWeirdGradient@@YAXUwin32_offscreen_buffer@@HH@Z
	DD	imagerel ?RenderWeirdGradient@@YAXUwin32_offscreen_buffer@@HH@Z+252
	DD	imagerel $unwind$?RenderWeirdGradient@@YAXUwin32_offscreen_buffer@@HH@Z
$pdata$?Win32ResizeDIBSection@@YAXPEAUwin32_offscreen_buffer@@HH@Z DD imagerel ?Win32ResizeDIBSection@@YAXPEAUwin32_offscreen_buffer@@HH@Z
	DD	imagerel ?Win32ResizeDIBSection@@YAXPEAUwin32_offscreen_buffer@@HH@Z+269
	DD	imagerel $unwind$?Win32ResizeDIBSection@@YAXPEAUwin32_offscreen_buffer@@HH@Z
$pdata$?Win32DisplayBufferInWindow@@YAXPEAUHDC__@@HHUwin32_offscreen_buffer@@HHHH@Z DD imagerel ?Win32DisplayBufferInWindow@@YAXPEAUHDC__@@HHUwin32_offscreen_buffer@@HHHH@Z
	DD	imagerel ?Win32DisplayBufferInWindow@@YAXPEAUHDC__@@HHUwin32_offscreen_buffer@@HHHH@Z+158
	DD	imagerel $unwind$?Win32DisplayBufferInWindow@@YAXPEAUHDC__@@HHUwin32_offscreen_buffer@@HHHH@Z
$pdata$?Win32MainWindowCallback@@YA_JPEAUHWND__@@I_K_J@Z DD imagerel $LN11
	DD	imagerel $LN11+484
	DD	imagerel $unwind$?Win32MainWindowCallback@@YA_JPEAUHWND__@@I_K_J@Z
pdata	ENDS
_DATA	SEGMENT
?XInputGetState_@@3P6AKKPEAU_XINPUT_STATE@@@ZEA DQ FLAT:?XInputGetStateStub@@YAKKPEAU_XINPUT_STATE@@@Z ; XInputGetState_
_DATA	ENDS
xdata	SEGMENT
$unwind$WinMain DD 042f19H
	DD	03d011dH
	DD	060157016H
	DD	imagerel __GSHandlerCheck
	DD	01d0H
$unwind$?Win32GetWindowDimension@@YA?AUwin32_window_dimension@@PEAUHWND__@@@Z DD 011819H
	DD	08209H
	DD	imagerel __GSHandlerCheck
	DD	038H
$unwind$?RenderWeirdGradient@@YAXUwin32_offscreen_buffer@@HH@Z DD 011201H
	DD	04212H
$unwind$?Win32ResizeDIBSection@@YAXPEAUwin32_offscreen_buffer@@HH@Z DD 011201H
	DD	06212H
$unwind$?Win32DisplayBufferInWindow@@YAXPEAUHDC__@@HHUwin32_offscreen_buffer@@HHHH@Z DD 011701H
	DD	0e217H
$unwind$?Win32MainWindowCallback@@YA_JPEAUHWND__@@I_K_J@Z DD 042e19H
	DD	027011cH
	DD	060147015H
	DD	imagerel __GSHandlerCheck
	DD	0120H
xdata	ENDS
; Function compile flags: /Odtp
; File w:\handmade\code\win32_handmade.cpp
_TEXT	SEGMENT
tv64 = 64
Height$1 = 68
Width$2 = 72
Y$3 = 76
X$4 = 80
Dimension$5 = 88
Result$ = 96
$T6 = 104
DeviceContext$7 = 112
$T8 = 128
Paint$9 = 208
__$ArrayPad$ = 288
Window$ = 336
Message$ = 344
WParam$ = 352
LParam$ = 360
?Win32MainWindowCallback@@YA_JPEAUHWND__@@I_K_J@Z PROC	; Win32MainWindowCallback

; 155  : {

$LN11:
  00000	4c 89 4c 24 20	 mov	 QWORD PTR [rsp+32], r9
  00005	4c 89 44 24 18	 mov	 QWORD PTR [rsp+24], r8
  0000a	89 54 24 10	 mov	 DWORD PTR [rsp+16], edx
  0000e	48 89 4c 24 08	 mov	 QWORD PTR [rsp+8], rcx
  00013	56		 push	 rsi
  00014	57		 push	 rdi
  00015	48 81 ec 38 01
	00 00		 sub	 rsp, 312		; 00000138H
  0001c	48 8b 05 00 00
	00 00		 mov	 rax, QWORD PTR __security_cookie
  00023	48 33 c4	 xor	 rax, rsp
  00026	48 89 84 24 20
	01 00 00	 mov	 QWORD PTR __$ArrayPad$[rsp], rax

; 156  : 	LRESULT Result = 0;

  0002e	48 c7 44 24 60
	00 00 00 00	 mov	 QWORD PTR Result$[rsp], 0

; 157  : 
; 158  : 	switch (Message)

  00037	8b 84 24 58 01
	00 00		 mov	 eax, DWORD PTR Message$[rsp]
  0003e	89 44 24 40	 mov	 DWORD PTR tv64[rsp], eax
  00042	83 7c 24 40 02	 cmp	 DWORD PTR tv64[rsp], 2
  00047	74 26		 je	 SHORT $LN5@Win32MainW
  00049	83 7c 24 40 05	 cmp	 DWORD PTR tv64[rsp], 5
  0004e	74 1a		 je	 SHORT $LN4@Win32MainW
  00050	83 7c 24 40 0f	 cmp	 DWORD PTR tv64[rsp], 15
  00055	74 5c		 je	 SHORT $LN8@Win32MainW
  00057	83 7c 24 40 10	 cmp	 DWORD PTR tv64[rsp], 16
  0005c	74 2a		 je	 SHORT $LN6@Win32MainW
  0005e	83 7c 24 40 1c	 cmp	 DWORD PTR tv64[rsp], 28
  00063	74 3c		 je	 SHORT $LN7@Win32MainW
  00065	e9 31 01 00 00	 jmp	 $LN9@Win32MainW
$LN4@Win32MainW:

; 159  : 	{
; 160  : 	case WM_SIZE:
; 161  : 	{
; 162  : 
; 163  : 	}
; 164  : 	break;

  0006a	e9 56 01 00 00	 jmp	 $LN2@Win32MainW
$LN5@Win32MainW:

; 165  : 
; 166  : 	case WM_DESTROY:
; 167  : 	{
; 168  : 		//handle as error, recreate window
; 169  : 		Running = false;

  0006f	c6 05 00 00 00
	00 00		 mov	 BYTE PTR ?Running@@3_NA, 0

; 170  : 		OutputDebugStringA("WM_DESTROY\n");

  00076	48 8d 0d 00 00
	00 00		 lea	 rcx, OFFSET FLAT:$SG90108
  0007d	ff 15 00 00 00
	00		 call	 QWORD PTR __imp_OutputDebugStringA

; 171  : 	}
; 172  : 	break;

  00083	e9 3d 01 00 00	 jmp	 $LN2@Win32MainW
$LN6@Win32MainW:

; 173  : 
; 174  : 	case WM_CLOSE:
; 175  : 	{
; 176  : 		//todo: handle with message to user
; 177  : 		Running = false;

  00088	c6 05 00 00 00
	00 00		 mov	 BYTE PTR ?Running@@3_NA, 0

; 178  : 		OutputDebugStringA("WM_CLOSE\n");

  0008f	48 8d 0d 00 00
	00 00		 lea	 rcx, OFFSET FLAT:$SG90110
  00096	ff 15 00 00 00
	00		 call	 QWORD PTR __imp_OutputDebugStringA

; 179  : 	}
; 180  : 	break;

  0009c	e9 24 01 00 00	 jmp	 $LN2@Win32MainW
$LN7@Win32MainW:

; 181  : 
; 182  : 	case WM_ACTIVATEAPP:
; 183  : 	{
; 184  : 		OutputDebugStringA("WM_ACTIVATEAPP\n");

  000a1	48 8d 0d 00 00
	00 00		 lea	 rcx, OFFSET FLAT:$SG90112
  000a8	ff 15 00 00 00
	00		 call	 QWORD PTR __imp_OutputDebugStringA

; 185  : 	}
; 186  : 	break;

  000ae	e9 12 01 00 00	 jmp	 $LN2@Win32MainW
$LN8@Win32MainW:

; 187  : 
; 188  : 	case WM_PAINT:
; 189  : 	{
; 190  : 		PAINTSTRUCT Paint;
; 191  : 		HDC DeviceContext = BeginPaint(Window, &Paint);

  000b3	48 8d 94 24 d0
	00 00 00	 lea	 rdx, QWORD PTR Paint$9[rsp]
  000bb	48 8b 8c 24 50
	01 00 00	 mov	 rcx, QWORD PTR Window$[rsp]
  000c3	ff 15 00 00 00
	00		 call	 QWORD PTR __imp_BeginPaint
  000c9	48 89 44 24 70	 mov	 QWORD PTR DeviceContext$7[rsp], rax

; 192  : 		int X = Paint.rcPaint.left;

  000ce	8b 84 24 dc 00
	00 00		 mov	 eax, DWORD PTR Paint$9[rsp+12]
  000d5	89 44 24 50	 mov	 DWORD PTR X$4[rsp], eax

; 193  : 		int Y = Paint.rcPaint.top;

  000d9	8b 84 24 e0 00
	00 00		 mov	 eax, DWORD PTR Paint$9[rsp+16]
  000e0	89 44 24 4c	 mov	 DWORD PTR Y$3[rsp], eax

; 194  : 		int Width = Paint.rcPaint.right - Paint.rcPaint.left;

  000e4	8b 84 24 dc 00
	00 00		 mov	 eax, DWORD PTR Paint$9[rsp+12]
  000eb	8b 8c 24 e4 00
	00 00		 mov	 ecx, DWORD PTR Paint$9[rsp+20]
  000f2	2b c8		 sub	 ecx, eax
  000f4	8b c1		 mov	 eax, ecx
  000f6	89 44 24 48	 mov	 DWORD PTR Width$2[rsp], eax

; 195  : 		int Height = Paint.rcPaint.bottom - Paint.rcPaint.top;

  000fa	8b 84 24 e0 00
	00 00		 mov	 eax, DWORD PTR Paint$9[rsp+16]
  00101	8b 8c 24 e8 00
	00 00		 mov	 ecx, DWORD PTR Paint$9[rsp+24]
  00108	2b c8		 sub	 ecx, eax
  0010a	8b c1		 mov	 eax, ecx
  0010c	89 44 24 44	 mov	 DWORD PTR Height$1[rsp], eax

; 196  : 		win32_window_dimension Dimension=Win32GetWindowDimension(Window);

  00110	48 8b 8c 24 50
	01 00 00	 mov	 rcx, QWORD PTR Window$[rsp]
  00118	e8 00 00 00 00	 call	 ?Win32GetWindowDimension@@YA?AUwin32_window_dimension@@PEAUHWND__@@@Z ; Win32GetWindowDimension
  0011d	48 89 44 24 68	 mov	 QWORD PTR $T6[rsp], rax
  00122	48 8b 44 24 68	 mov	 rax, QWORD PTR $T6[rsp]
  00127	48 89 44 24 58	 mov	 QWORD PTR Dimension$5[rsp], rax

; 197  : 		Win32DisplayBufferInWindow(DeviceContext, Dimension.Width, Dimension.Height, GlobalBackBuffer, X, Y, Width, Height);

  0012c	48 8d 84 24 80
	00 00 00	 lea	 rax, QWORD PTR $T8[rsp]
  00134	48 8d 0d 00 00
	00 00		 lea	 rcx, OFFSET FLAT:?GlobalBackBuffer@@3Uwin32_offscreen_buffer@@A
  0013b	48 8b f8	 mov	 rdi, rax
  0013e	48 8b f1	 mov	 rsi, rcx
  00141	b9 48 00 00 00	 mov	 ecx, 72			; 00000048H
  00146	f3 a4		 rep movsb
  00148	8b 44 24 44	 mov	 eax, DWORD PTR Height$1[rsp]
  0014c	89 44 24 38	 mov	 DWORD PTR [rsp+56], eax
  00150	8b 44 24 48	 mov	 eax, DWORD PTR Width$2[rsp]
  00154	89 44 24 30	 mov	 DWORD PTR [rsp+48], eax
  00158	8b 44 24 4c	 mov	 eax, DWORD PTR Y$3[rsp]
  0015c	89 44 24 28	 mov	 DWORD PTR [rsp+40], eax
  00160	8b 44 24 50	 mov	 eax, DWORD PTR X$4[rsp]
  00164	89 44 24 20	 mov	 DWORD PTR [rsp+32], eax
  00168	4c 8d 8c 24 80
	00 00 00	 lea	 r9, QWORD PTR $T8[rsp]
  00170	44 8b 44 24 5c	 mov	 r8d, DWORD PTR Dimension$5[rsp+4]
  00175	8b 54 24 58	 mov	 edx, DWORD PTR Dimension$5[rsp]
  00179	48 8b 4c 24 70	 mov	 rcx, QWORD PTR DeviceContext$7[rsp]
  0017e	e8 00 00 00 00	 call	 ?Win32DisplayBufferInWindow@@YAXPEAUHDC__@@HHUwin32_offscreen_buffer@@HHHH@Z ; Win32DisplayBufferInWindow

; 198  : 		EndPaint(Window, &Paint);

  00183	48 8d 94 24 d0
	00 00 00	 lea	 rdx, QWORD PTR Paint$9[rsp]
  0018b	48 8b 8c 24 50
	01 00 00	 mov	 rcx, QWORD PTR Window$[rsp]
  00193	ff 15 00 00 00
	00		 call	 QWORD PTR __imp_EndPaint

; 199  : 	}
; 200  : 	break;

  00199	eb 2a		 jmp	 SHORT $LN2@Win32MainW
$LN9@Win32MainW:

; 201  : 
; 202  : 	default:
; 203  : 	{
; 204  : 
; 205  : 		//OutputDebugStringA("DEFAULT\n");
; 206  : 		Result = DefWindowProc(Window, Message, WParam, LParam);

  0019b	4c 8b 8c 24 68
	01 00 00	 mov	 r9, QWORD PTR LParam$[rsp]
  001a3	4c 8b 84 24 60
	01 00 00	 mov	 r8, QWORD PTR WParam$[rsp]
  001ab	8b 94 24 58 01
	00 00		 mov	 edx, DWORD PTR Message$[rsp]
  001b2	48 8b 8c 24 50
	01 00 00	 mov	 rcx, QWORD PTR Window$[rsp]
  001ba	ff 15 00 00 00
	00		 call	 QWORD PTR __imp_DefWindowProcA
  001c0	48 89 44 24 60	 mov	 QWORD PTR Result$[rsp], rax
$LN2@Win32MainW:

; 207  : 	}
; 208  : 	break;
; 209  : 	}
; 210  : 	return (Result);

  001c5	48 8b 44 24 60	 mov	 rax, QWORD PTR Result$[rsp]

; 211  : }

  001ca	48 8b 8c 24 20
	01 00 00	 mov	 rcx, QWORD PTR __$ArrayPad$[rsp]
  001d2	48 33 cc	 xor	 rcx, rsp
  001d5	e8 00 00 00 00	 call	 __security_check_cookie
  001da	48 81 c4 38 01
	00 00		 add	 rsp, 312		; 00000138H
  001e1	5f		 pop	 rdi
  001e2	5e		 pop	 rsi
  001e3	c3		 ret	 0
?Win32MainWindowCallback@@YA_JPEAUHWND__@@I_K_J@Z ENDP	; Win32MainWindowCallback
_TEXT	ENDS
; Function compile flags: /Odtp
; File w:\handmade\code\win32_handmade.cpp
_TEXT	SEGMENT
DeviceContext$ = 128
WindowWidth$ = 136
WindowHeight$ = 144
Buffer$ = 152
x$ = 160
y$ = 168
Width$ = 176
Height$ = 184
?Win32DisplayBufferInWindow@@YAXPEAUHDC__@@HHUwin32_offscreen_buffer@@HHHH@Z PROC ; Win32DisplayBufferInWindow

; 140  : {

  00000	4c 89 4c 24 20	 mov	 QWORD PTR [rsp+32], r9
  00005	44 89 44 24 18	 mov	 DWORD PTR [rsp+24], r8d
  0000a	89 54 24 10	 mov	 DWORD PTR [rsp+16], edx
  0000e	48 89 4c 24 08	 mov	 QWORD PTR [rsp+8], rcx
  00013	48 83 ec 78	 sub	 rsp, 120		; 00000078H

; 141  : 	//TODO: Aspect Ratio Correction
; 142  : 	StretchDIBits(DeviceContext,

  00017	48 8b 84 24 98
	00 00 00	 mov	 rax, QWORD PTR Buffer$[rsp]
  0001f	c7 44 24 60 20
	00 cc 00	 mov	 DWORD PTR [rsp+96], 13369376 ; 00cc0020H
  00027	c7 44 24 58 00
	00 00 00	 mov	 DWORD PTR [rsp+88], 0
  0002f	48 89 44 24 50	 mov	 QWORD PTR [rsp+80], rax
  00034	48 8b 84 24 98
	00 00 00	 mov	 rax, QWORD PTR Buffer$[rsp]
  0003c	48 8b 40 30	 mov	 rax, QWORD PTR [rax+48]
  00040	48 89 44 24 48	 mov	 QWORD PTR [rsp+72], rax
  00045	48 8b 84 24 98
	00 00 00	 mov	 rax, QWORD PTR Buffer$[rsp]
  0004d	8b 40 3c	 mov	 eax, DWORD PTR [rax+60]
  00050	89 44 24 40	 mov	 DWORD PTR [rsp+64], eax
  00054	48 8b 84 24 98
	00 00 00	 mov	 rax, QWORD PTR Buffer$[rsp]
  0005c	8b 40 38	 mov	 eax, DWORD PTR [rax+56]
  0005f	89 44 24 38	 mov	 DWORD PTR [rsp+56], eax
  00063	c7 44 24 30 00
	00 00 00	 mov	 DWORD PTR [rsp+48], 0
  0006b	c7 44 24 28 00
	00 00 00	 mov	 DWORD PTR [rsp+40], 0
  00073	8b 84 24 90 00
	00 00		 mov	 eax, DWORD PTR WindowHeight$[rsp]
  0007a	89 44 24 20	 mov	 DWORD PTR [rsp+32], eax
  0007e	44 8b 8c 24 88
	00 00 00	 mov	 r9d, DWORD PTR WindowWidth$[rsp]
  00086	45 33 c0	 xor	 r8d, r8d
  00089	33 d2		 xor	 edx, edx
  0008b	48 8b 8c 24 80
	00 00 00	 mov	 rcx, QWORD PTR DeviceContext$[rsp]
  00093	ff 15 00 00 00
	00		 call	 QWORD PTR __imp_StretchDIBits

; 143  : 				  0, 0, WindowWidth, WindowHeight,
; 144  : 				  0, 0, Buffer.Width, Buffer.Height,
; 145  : 				  Buffer.Memory,
; 146  : 				  &Buffer.Info,
; 147  : 				  DIB_RGB_COLORS, SRCCOPY);
; 148  : }

  00099	48 83 c4 78	 add	 rsp, 120		; 00000078H
  0009d	c3		 ret	 0
?Win32DisplayBufferInWindow@@YAXPEAUHDC__@@HHUwin32_offscreen_buffer@@HHHH@Z ENDP ; Win32DisplayBufferInWindow
_TEXT	ENDS
; Function compile flags: /Odtp
; File w:\handmade\code\win32_handmade.cpp
_TEXT	SEGMENT
BitmapMemorySize$ = 32
Buffer$ = 64
Width$ = 72
Height$ = 80
?Win32ResizeDIBSection@@YAXPEAUwin32_offscreen_buffer@@HH@Z PROC ; Win32ResizeDIBSection

; 116  : {

  00000	44 89 44 24 18	 mov	 DWORD PTR [rsp+24], r8d
  00005	89 54 24 10	 mov	 DWORD PTR [rsp+16], edx
  00009	48 89 4c 24 08	 mov	 QWORD PTR [rsp+8], rcx
  0000e	48 83 ec 38	 sub	 rsp, 56			; 00000038H

; 117  : 	if (Buffer->Memory)

  00012	48 8b 44 24 40	 mov	 rax, QWORD PTR Buffer$[rsp]
  00017	48 83 78 30 00	 cmp	 QWORD PTR [rax+48], 0
  0001c	74 17		 je	 SHORT $LN2@Win32Resiz

; 118  : 	{
; 119  : 		VirtualFree(Buffer->Memory, 0, MEM_RELEASE);

  0001e	41 b8 00 80 00
	00		 mov	 r8d, 32768		; 00008000H
  00024	33 d2		 xor	 edx, edx
  00026	48 8b 44 24 40	 mov	 rax, QWORD PTR Buffer$[rsp]
  0002b	48 8b 48 30	 mov	 rcx, QWORD PTR [rax+48]
  0002f	ff 15 00 00 00
	00		 call	 QWORD PTR __imp_VirtualFree
$LN2@Win32Resiz:

; 120  : 	}
; 121  : 
; 122  : 	Buffer->Width = Width;

  00035	48 8b 44 24 40	 mov	 rax, QWORD PTR Buffer$[rsp]
  0003a	8b 4c 24 48	 mov	 ecx, DWORD PTR Width$[rsp]
  0003e	89 48 38	 mov	 DWORD PTR [rax+56], ecx

; 123  : 	Buffer->Height = Height; 

  00041	48 8b 44 24 40	 mov	 rax, QWORD PTR Buffer$[rsp]
  00046	8b 4c 24 50	 mov	 ecx, DWORD PTR Height$[rsp]
  0004a	89 48 3c	 mov	 DWORD PTR [rax+60], ecx

; 124  : 	Buffer->BytesPerPixel = 4;

  0004d	48 8b 44 24 40	 mov	 rax, QWORD PTR Buffer$[rsp]
  00052	c7 40 44 04 00
	00 00		 mov	 DWORD PTR [rax+68], 4

; 125  : 
; 126  : 	Buffer->Info.bmiHeader.biSize = sizeof(Buffer->Info.bmiHeader);

  00059	48 8b 44 24 40	 mov	 rax, QWORD PTR Buffer$[rsp]
  0005e	c7 00 28 00 00
	00		 mov	 DWORD PTR [rax], 40	; 00000028H

; 127  : 	Buffer->Info.bmiHeader.biWidth = Buffer->Width;

  00064	48 8b 44 24 40	 mov	 rax, QWORD PTR Buffer$[rsp]
  00069	48 8b 4c 24 40	 mov	 rcx, QWORD PTR Buffer$[rsp]
  0006e	8b 49 38	 mov	 ecx, DWORD PTR [rcx+56]
  00071	89 48 04	 mov	 DWORD PTR [rax+4], ecx

; 128  : 	Buffer->Info.bmiHeader.biHeight = -Buffer->Height; // negative top yield a 'top down'

  00074	48 8b 44 24 40	 mov	 rax, QWORD PTR Buffer$[rsp]
  00079	8b 40 3c	 mov	 eax, DWORD PTR [rax+60]
  0007c	f7 d8		 neg	 eax
  0007e	48 8b 4c 24 40	 mov	 rcx, QWORD PTR Buffer$[rsp]
  00083	89 41 08	 mov	 DWORD PTR [rcx+8], eax

; 129  : 	Buffer->Info.bmiHeader.biPlanes = 1;

  00086	b8 01 00 00 00	 mov	 eax, 1
  0008b	48 8b 4c 24 40	 mov	 rcx, QWORD PTR Buffer$[rsp]
  00090	66 89 41 0c	 mov	 WORD PTR [rcx+12], ax

; 130  : 	Buffer->Info.bmiHeader.biBitCount = 32;

  00094	b8 20 00 00 00	 mov	 eax, 32			; 00000020H
  00099	48 8b 4c 24 40	 mov	 rcx, QWORD PTR Buffer$[rsp]
  0009e	66 89 41 0e	 mov	 WORD PTR [rcx+14], ax

; 131  : 	Buffer->Info.bmiHeader.biCompression = BI_RGB;

  000a2	48 8b 44 24 40	 mov	 rax, QWORD PTR Buffer$[rsp]
  000a7	c7 40 10 00 00
	00 00		 mov	 DWORD PTR [rax+16], 0

; 132  : 
; 133  : 	int BitmapMemorySize = (Buffer->Width * Buffer->Height) * Buffer->BytesPerPixel;

  000ae	48 8b 44 24 40	 mov	 rax, QWORD PTR Buffer$[rsp]
  000b3	48 8b 4c 24 40	 mov	 rcx, QWORD PTR Buffer$[rsp]
  000b8	8b 40 38	 mov	 eax, DWORD PTR [rax+56]
  000bb	0f af 41 3c	 imul	 eax, DWORD PTR [rcx+60]
  000bf	48 8b 4c 24 40	 mov	 rcx, QWORD PTR Buffer$[rsp]
  000c4	0f af 41 44	 imul	 eax, DWORD PTR [rcx+68]
  000c8	89 44 24 20	 mov	 DWORD PTR BitmapMemorySize$[rsp], eax

; 134  : 	Buffer->Memory = VirtualAlloc(0,BitmapMemorySize,MEM_COMMIT,PAGE_READWRITE);

  000cc	48 63 44 24 20	 movsxd	 rax, DWORD PTR BitmapMemorySize$[rsp]
  000d1	41 b9 04 00 00
	00		 mov	 r9d, 4
  000d7	41 b8 00 10 00
	00		 mov	 r8d, 4096		; 00001000H
  000dd	48 8b d0	 mov	 rdx, rax
  000e0	33 c9		 xor	 ecx, ecx
  000e2	ff 15 00 00 00
	00		 call	 QWORD PTR __imp_VirtualAlloc
  000e8	48 8b 4c 24 40	 mov	 rcx, QWORD PTR Buffer$[rsp]
  000ed	48 89 41 30	 mov	 QWORD PTR [rcx+48], rax

; 135  : 
; 136  : 	Buffer->Pitch = Width * Buffer->BytesPerPixel;  // Pitch is the difference between rows of pixels in Bytes

  000f1	48 8b 44 24 40	 mov	 rax, QWORD PTR Buffer$[rsp]
  000f6	8b 4c 24 48	 mov	 ecx, DWORD PTR Width$[rsp]
  000fa	0f af 48 44	 imul	 ecx, DWORD PTR [rax+68]
  000fe	8b c1		 mov	 eax, ecx
  00100	48 8b 4c 24 40	 mov	 rcx, QWORD PTR Buffer$[rsp]
  00105	89 41 40	 mov	 DWORD PTR [rcx+64], eax

; 137  : }

  00108	48 83 c4 38	 add	 rsp, 56			; 00000038H
  0010c	c3		 ret	 0
?Win32ResizeDIBSection@@YAXPEAUwin32_offscreen_buffer@@HH@Z ENDP ; Win32ResizeDIBSection
_TEXT	ENDS
; Function compile flags: /Odtp
; File w:\handmade\code\win32_handmade.cpp
_TEXT	SEGMENT
X$1 = 0
Y$2 = 4
Pixel$3 = 8
Row$ = 16
Buffer$ = 48
BlueOffset$ = 56
GreenOffset$ = 64
?RenderWeirdGradient@@YAXUwin32_offscreen_buffer@@HH@Z PROC ; RenderWeirdGradient

; 88   : {

  00000	44 89 44 24 18	 mov	 DWORD PTR [rsp+24], r8d
  00005	89 54 24 10	 mov	 DWORD PTR [rsp+16], edx
  00009	48 89 4c 24 08	 mov	 QWORD PTR [rsp+8], rcx
  0000e	48 83 ec 28	 sub	 rsp, 40			; 00000028H

; 89   : 	uint8 *Row = (uint8 *)Buffer.Memory; // cast the void pointer BitmapMemory to unsigned 8 bit int

  00012	48 8b 44 24 30	 mov	 rax, QWORD PTR Buffer$[rsp]
  00017	48 8b 40 30	 mov	 rax, QWORD PTR [rax+48]
  0001b	48 89 44 24 10	 mov	 QWORD PTR Row$[rsp], rax

; 90   : 	for (int Y = 0; Y < Buffer.Height; ++Y)

  00020	c7 44 24 04 00
	00 00 00	 mov	 DWORD PTR Y$2[rsp], 0
  00028	eb 0a		 jmp	 SHORT $LN4@RenderWeir
$LN2@RenderWeir:
  0002a	8b 44 24 04	 mov	 eax, DWORD PTR Y$2[rsp]
  0002e	ff c0		 inc	 eax
  00030	89 44 24 04	 mov	 DWORD PTR Y$2[rsp], eax
$LN4@RenderWeir:
  00034	48 8b 44 24 30	 mov	 rax, QWORD PTR Buffer$[rsp]
  00039	8b 40 3c	 mov	 eax, DWORD PTR [rax+60]
  0003c	39 44 24 04	 cmp	 DWORD PTR Y$2[rsp], eax
  00040	0f 8d b1 00 00
	00		 jge	 $LN3@RenderWeir

; 91   : 	{
; 92   : 		//uint32 *Pixel = (uint32 *)Row; //pointer to first pixel of Row
; 93   : 		uint8 *Pixel = (uint8 *)Row; //pointer to first byte of first pixel of Row

  00046	48 8b 44 24 10	 mov	 rax, QWORD PTR Row$[rsp]
  0004b	48 89 44 24 08	 mov	 QWORD PTR Pixel$3[rsp], rax

; 94   : 
; 95   : 		for (int X = 0; X <Buffer.Width; ++X) 

  00050	c7 04 24 00 00
	00 00		 mov	 DWORD PTR X$1[rsp], 0
  00057	eb 08		 jmp	 SHORT $LN7@RenderWeir
$LN5@RenderWeir:
  00059	8b 04 24	 mov	 eax, DWORD PTR X$1[rsp]
  0005c	ff c0		 inc	 eax
  0005e	89 04 24	 mov	 DWORD PTR X$1[rsp], eax
$LN7@RenderWeir:
  00061	48 8b 44 24 30	 mov	 rax, QWORD PTR Buffer$[rsp]
  00066	8b 40 38	 mov	 eax, DWORD PTR [rax+56]
  00069	39 04 24	 cmp	 DWORD PTR X$1[rsp], eax
  0006c	7d 6b		 jge	 SHORT $LN6@RenderWeir

; 96   : 		{
; 97   : 
; 98   : 			*Pixel = (uint8)(X+BlueOffset); //Blue

  0006e	8b 44 24 38	 mov	 eax, DWORD PTR BlueOffset$[rsp]
  00072	8b 0c 24	 mov	 ecx, DWORD PTR X$1[rsp]
  00075	03 c8		 add	 ecx, eax
  00077	8b c1		 mov	 eax, ecx
  00079	48 8b 4c 24 08	 mov	 rcx, QWORD PTR Pixel$3[rsp]
  0007e	88 01		 mov	 BYTE PTR [rcx], al

; 99   : 			++Pixel;

  00080	48 8b 44 24 08	 mov	 rax, QWORD PTR Pixel$3[rsp]
  00085	48 ff c0	 inc	 rax
  00088	48 89 44 24 08	 mov	 QWORD PTR Pixel$3[rsp], rax

; 100  : 
; 101  : 			*Pixel = (uint8)(Y+GreenOffset); //Green

  0008d	8b 44 24 40	 mov	 eax, DWORD PTR GreenOffset$[rsp]
  00091	8b 4c 24 04	 mov	 ecx, DWORD PTR Y$2[rsp]
  00095	03 c8		 add	 ecx, eax
  00097	8b c1		 mov	 eax, ecx
  00099	48 8b 4c 24 08	 mov	 rcx, QWORD PTR Pixel$3[rsp]
  0009e	88 01		 mov	 BYTE PTR [rcx], al

; 102  : 			++Pixel;

  000a0	48 8b 44 24 08	 mov	 rax, QWORD PTR Pixel$3[rsp]
  000a5	48 ff c0	 inc	 rax
  000a8	48 89 44 24 08	 mov	 QWORD PTR Pixel$3[rsp], rax

; 103  : 
; 104  : 			*Pixel = 0; //Red

  000ad	48 8b 44 24 08	 mov	 rax, QWORD PTR Pixel$3[rsp]
  000b2	c6 00 00	 mov	 BYTE PTR [rax], 0

; 105  : 			++Pixel;

  000b5	48 8b 44 24 08	 mov	 rax, QWORD PTR Pixel$3[rsp]
  000ba	48 ff c0	 inc	 rax
  000bd	48 89 44 24 08	 mov	 QWORD PTR Pixel$3[rsp], rax

; 106  : 
; 107  : 			*Pixel = 0;

  000c2	48 8b 44 24 08	 mov	 rax, QWORD PTR Pixel$3[rsp]
  000c7	c6 00 00	 mov	 BYTE PTR [rax], 0

; 108  : 			++Pixel;

  000ca	48 8b 44 24 08	 mov	 rax, QWORD PTR Pixel$3[rsp]
  000cf	48 ff c0	 inc	 rax
  000d2	48 89 44 24 08	 mov	 QWORD PTR Pixel$3[rsp], rax

; 109  : 		}

  000d7	eb 80		 jmp	 SHORT $LN5@RenderWeir
$LN6@RenderWeir:

; 110  : 
; 111  : 		Row += Buffer.Pitch;

  000d9	48 8b 44 24 30	 mov	 rax, QWORD PTR Buffer$[rsp]
  000de	48 63 40 40	 movsxd	 rax, DWORD PTR [rax+64]
  000e2	48 8b 4c 24 10	 mov	 rcx, QWORD PTR Row$[rsp]
  000e7	48 03 c8	 add	 rcx, rax
  000ea	48 8b c1	 mov	 rax, rcx
  000ed	48 89 44 24 10	 mov	 QWORD PTR Row$[rsp], rax

; 112  : 	}

  000f2	e9 33 ff ff ff	 jmp	 $LN2@RenderWeir
$LN3@RenderWeir:

; 113  : }

  000f7	48 83 c4 28	 add	 rsp, 40			; 00000028H
  000fb	c3		 ret	 0
?RenderWeirdGradient@@YAXUwin32_offscreen_buffer@@HH@Z ENDP ; RenderWeirdGradient
_TEXT	ENDS
; Function compile flags: /Odtp
; File w:\handmade\code\win32_handmade.cpp
_TEXT	SEGMENT
Result$ = 32
ClientRect$ = 40
__$ArrayPad$ = 56
Window$ = 80
?Win32GetWindowDimension@@YA?AUwin32_window_dimension@@PEAUHWND__@@@Z PROC ; Win32GetWindowDimension

; 73   : win32_window_dimension Win32GetWindowDimension(HWND Window){

$LN3:
  00000	48 89 4c 24 08	 mov	 QWORD PTR [rsp+8], rcx
  00005	48 83 ec 48	 sub	 rsp, 72			; 00000048H
  00009	48 8b 05 00 00
	00 00		 mov	 rax, QWORD PTR __security_cookie
  00010	48 33 c4	 xor	 rax, rsp
  00013	48 89 44 24 38	 mov	 QWORD PTR __$ArrayPad$[rsp], rax

; 74   : 
; 75   : 	RECT ClientRect;
; 76   : 	win32_window_dimension Result;
; 77   : 	GetClientRect(Window, &ClientRect);

  00018	48 8d 54 24 28	 lea	 rdx, QWORD PTR ClientRect$[rsp]
  0001d	48 8b 4c 24 50	 mov	 rcx, QWORD PTR Window$[rsp]
  00022	ff 15 00 00 00
	00		 call	 QWORD PTR __imp_GetClientRect

; 78   : 	Result.Width = ClientRect.right - ClientRect.left;

  00028	8b 44 24 28	 mov	 eax, DWORD PTR ClientRect$[rsp]
  0002c	8b 4c 24 30	 mov	 ecx, DWORD PTR ClientRect$[rsp+8]
  00030	2b c8		 sub	 ecx, eax
  00032	8b c1		 mov	 eax, ecx
  00034	89 44 24 20	 mov	 DWORD PTR Result$[rsp], eax

; 79   : 	Result.Height = ClientRect.bottom - ClientRect.top;

  00038	8b 44 24 2c	 mov	 eax, DWORD PTR ClientRect$[rsp+4]
  0003c	8b 4c 24 34	 mov	 ecx, DWORD PTR ClientRect$[rsp+12]
  00040	2b c8		 sub	 ecx, eax
  00042	8b c1		 mov	 eax, ecx
  00044	89 44 24 24	 mov	 DWORD PTR Result$[rsp+4], eax

; 80   : 	return(Result);

  00048	48 8b 44 24 20	 mov	 rax, QWORD PTR Result$[rsp]

; 81   : 	
; 82   : }

  0004d	48 8b 4c 24 38	 mov	 rcx, QWORD PTR __$ArrayPad$[rsp]
  00052	48 33 cc	 xor	 rcx, rsp
  00055	e8 00 00 00 00	 call	 __security_check_cookie
  0005a	48 83 c4 48	 add	 rsp, 72			; 00000048H
  0005e	c3		 ret	 0
?Win32GetWindowDimension@@YA?AUwin32_window_dimension@@PEAUHWND__@@@Z ENDP ; Win32GetWindowDimension
_TEXT	ENDS
; Function compile flags: /Odtp
; File w:\handmade\code\win32_handmade.cpp
_TEXT	SEGMENT
dwUserIndex$ = 8
pVibration$ = 16
?XInputSetStateStub@@YAKKPEAU_XINPUT_VIBRATION@@@Z PROC	; XInputSetStateStub

; 60   : X_INPUT_SET_STATE(XInputSetStateStub){

  00000	48 89 54 24 10	 mov	 QWORD PTR [rsp+16], rdx
  00005	89 4c 24 08	 mov	 DWORD PTR [rsp+8], ecx

; 61   : 	return(0);

  00009	33 c0		 xor	 eax, eax

; 62   : }

  0000b	c3		 ret	 0
?XInputSetStateStub@@YAKKPEAU_XINPUT_VIBRATION@@@Z ENDP	; XInputSetStateStub
_TEXT	ENDS
; Function compile flags: /Odtp
; File w:\handmade\code\win32_handmade.cpp
_TEXT	SEGMENT
dwUserIndex$ = 8
pState$ = 16
?XInputGetStateStub@@YAKKPEAU_XINPUT_STATE@@@Z PROC	; XInputGetStateStub

; 52   : X_INPUT_GET_STATE(XInputGetStateStub){

  00000	48 89 54 24 10	 mov	 QWORD PTR [rsp+16], rdx
  00005	89 4c 24 08	 mov	 DWORD PTR [rsp+8], ecx

; 53   : 	return(0);

  00009	33 c0		 xor	 eax, eax

; 54   : }

  0000b	c3		 ret	 0
?XInputGetStateStub@@YAKKPEAU_XINPUT_STATE@@@Z ENDP	; XInputGetStateStub
_TEXT	ENDS
; Function compile flags: /Odtp
; File w:\handmade\code\win32_handmade.cpp
_TEXT	SEGMENT
i$1 = 96
BlueOffset$2 = 100
GreenOffset$3 = 104
Dimension$4 = 112
Window$5 = 120
dwResult$6 = 128
DeviceContext$7 = 136
$T8 = 144
WindowClass$ = 160
Message$9 = 240
$T10 = 288
$T11 = 368
state$12 = 448
__$ArrayPad$ = 464
Instance$ = 512
PrevInstance$ = 520
Command$ = 528
ShowCode$ = 536
WinMain	PROC

; 218  : {

$LN17:
  00000	44 89 4c 24 20	 mov	 DWORD PTR [rsp+32], r9d
  00005	4c 89 44 24 18	 mov	 QWORD PTR [rsp+24], r8
  0000a	48 89 54 24 10	 mov	 QWORD PTR [rsp+16], rdx
  0000f	48 89 4c 24 08	 mov	 QWORD PTR [rsp+8], rcx
  00014	56		 push	 rsi
  00015	57		 push	 rdi
  00016	48 81 ec e8 01
	00 00		 sub	 rsp, 488		; 000001e8H
  0001d	48 8b 05 00 00
	00 00		 mov	 rax, QWORD PTR __security_cookie
  00024	48 33 c4	 xor	 rax, rsp
  00027	48 89 84 24 d0
	01 00 00	 mov	 QWORD PTR __$ArrayPad$[rsp], rax

; 219  : 
; 220  : 	WNDCLASS WindowClass = {}; // declares a WNDCLASS instance 'windowClass', with members initialized to 0.

  0002f	48 8d 84 24 a0
	00 00 00	 lea	 rax, QWORD PTR WindowClass$[rsp]
  00037	48 8b f8	 mov	 rdi, rax
  0003a	33 c0		 xor	 eax, eax
  0003c	b9 48 00 00 00	 mov	 ecx, 72			; 00000048H
  00041	f3 aa		 rep stosb

; 221  : 
; 222  : 	Win32ResizeDIBSection(&GlobalBackBuffer, 1280,720);

  00043	41 b8 d0 02 00
	00		 mov	 r8d, 720		; 000002d0H
  00049	ba 00 05 00 00	 mov	 edx, 1280		; 00000500H
  0004e	48 8d 0d 00 00
	00 00		 lea	 rcx, OFFSET FLAT:?GlobalBackBuffer@@3Uwin32_offscreen_buffer@@A
  00055	e8 00 00 00 00	 call	 ?Win32ResizeDIBSection@@YAXPEAUwin32_offscreen_buffer@@HH@Z ; Win32ResizeDIBSection

; 223  : 
; 224  : 	WindowClass.style = CS_HREDRAW | CS_VREDRAW; // bitfield flags to define windowstyle see MSDN

  0005a	c7 84 24 a0 00
	00 00 03 00 00
	00		 mov	 DWORD PTR WindowClass$[rsp], 3

; 225  : 	WindowClass.lpfnWndProc = Win32MainWindowCallback;// pointer to a function that defines window's response to events

  00065	48 8d 05 00 00
	00 00		 lea	 rax, OFFSET FLAT:?Win32MainWindowCallback@@YA_JPEAUHWND__@@I_K_J@Z ; Win32MainWindowCallback
  0006c	48 89 84 24 a8
	00 00 00	 mov	 QWORD PTR WindowClass$[rsp+8], rax

; 226  : 	WindowClass.hInstance = Instance; // reference to the instance of this window, from WinMain function.(Could also use GetModuleHandle)

  00074	48 8b 84 24 00
	02 00 00	 mov	 rax, QWORD PTR Instance$[rsp]
  0007c	48 89 84 24 b8
	00 00 00	 mov	 QWORD PTR WindowClass$[rsp+24], rax

; 227  : 	// WindowClass.hIcon = ; // icon for window
; 228  : 	WindowClass.lpszClassName = "handmadeHeroWindowClass";

  00084	48 8d 05 00 00
	00 00		 lea	 rax, OFFSET FLAT:$SG90146
  0008b	48 89 84 24 e0
	00 00 00	 mov	 QWORD PTR WindowClass$[rsp+64], rax

; 229  : 
; 230  : 
; 231  : 
; 232  : 	if (RegisterClass(&WindowClass))

  00093	48 8d 8c 24 a0
	00 00 00	 lea	 rcx, QWORD PTR WindowClass$[rsp]
  0009b	ff 15 00 00 00
	00		 call	 QWORD PTR __imp_RegisterClassA
  000a1	0f b7 c0	 movzx	 eax, ax
  000a4	85 c0		 test	 eax, eax
  000a6	0f 84 22 02 00
	00		 je	 $LN9@WinMain

; 233  : 	{
; 234  : 		HWND Window = CreateWindowEx(

  000ac	48 c7 44 24 58
	00 00 00 00	 mov	 QWORD PTR [rsp+88], 0
  000b5	48 8b 84 24 00
	02 00 00	 mov	 rax, QWORD PTR Instance$[rsp]
  000bd	48 89 44 24 50	 mov	 QWORD PTR [rsp+80], rax
  000c2	48 c7 44 24 48
	00 00 00 00	 mov	 QWORD PTR [rsp+72], 0
  000cb	48 c7 44 24 40
	00 00 00 00	 mov	 QWORD PTR [rsp+64], 0
  000d4	c7 44 24 38 00
	00 00 80	 mov	 DWORD PTR [rsp+56], -2147483648 ; ffffffff80000000H
  000dc	c7 44 24 30 00
	00 00 80	 mov	 DWORD PTR [rsp+48], -2147483648 ; ffffffff80000000H
  000e4	c7 44 24 28 00
	00 00 80	 mov	 DWORD PTR [rsp+40], -2147483648 ; ffffffff80000000H
  000ec	c7 44 24 20 00
	00 00 80	 mov	 DWORD PTR [rsp+32], -2147483648 ; ffffffff80000000H
  000f4	41 b9 00 00 cf
	10		 mov	 r9d, 282001408		; 10cf0000H
  000fa	4c 8d 05 00 00
	00 00		 lea	 r8, OFFSET FLAT:$SG90149
  00101	48 8b 94 24 e0
	00 00 00	 mov	 rdx, QWORD PTR WindowClass$[rsp+64]
  00109	33 c9		 xor	 ecx, ecx
  0010b	ff 15 00 00 00
	00		 call	 QWORD PTR __imp_CreateWindowExA
  00111	48 89 44 24 78	 mov	 QWORD PTR Window$5[rsp], rax

; 235  : 			0,
; 236  : 			WindowClass.lpszClassName,
; 237  : 			"Handmade Hero",
; 238  : 			WS_OVERLAPPEDWINDOW | WS_VISIBLE,
; 239  : 			CW_USEDEFAULT,
; 240  : 			CW_USEDEFAULT,
; 241  : 			CW_USEDEFAULT,
; 242  : 			CW_USEDEFAULT,
; 243  : 			0,
; 244  : 			0,
; 245  : 			Instance,
; 246  : 			0);
; 247  : 
; 248  : 		if (Window)

  00116	48 83 7c 24 78
	00		 cmp	 QWORD PTR Window$5[rsp], 0
  0011c	0f 84 ac 01 00
	00		 je	 $LN11@WinMain

; 249  : 		{
; 250  : 			int BlueOffset=0;

  00122	c7 44 24 64 00
	00 00 00	 mov	 DWORD PTR BlueOffset$2[rsp], 0

; 251  : 			int GreenOffset=0;

  0012a	c7 44 24 68 00
	00 00 00	 mov	 DWORD PTR GreenOffset$3[rsp], 0

; 252  : 
; 253  : 			Running = true;

  00132	c6 05 00 00 00
	00 01		 mov	 BYTE PTR ?Running@@3_NA, 1
$LN2@WinMain:

; 254  : 			while (Running)

  00139	0f b6 05 00 00
	00 00		 movzx	 eax, BYTE PTR ?Running@@3_NA
  00140	85 c0		 test	 eax, eax
  00142	0f 84 86 01 00
	00		 je	 $LN3@WinMain
$LN4@WinMain:

; 255  : 			{
; 256  : 				//
; 257  : 				MSG Message;
; 258  : 				while(PeekMessage(&Message, 0, 0, 0,PM_REMOVE))

  00148	c7 44 24 20 01
	00 00 00	 mov	 DWORD PTR [rsp+32], 1
  00150	45 33 c9	 xor	 r9d, r9d
  00153	45 33 c0	 xor	 r8d, r8d
  00156	33 d2		 xor	 edx, edx
  00158	48 8d 8c 24 f0
	00 00 00	 lea	 rcx, QWORD PTR Message$9[rsp]
  00160	ff 15 00 00 00
	00		 call	 QWORD PTR __imp_PeekMessageA
  00166	85 c0		 test	 eax, eax
  00168	74 2f		 je	 SHORT $LN5@WinMain

; 259  : 				{
; 260  : 					if (Message.message == WM_QUIT)

  0016a	83 bc 24 f8 00
	00 00 12	 cmp	 DWORD PTR Message$9[rsp+8], 18
  00172	75 07		 jne	 SHORT $LN13@WinMain

; 261  : 					{
; 262  : 						Running=false;

  00174	c6 05 00 00 00
	00 00		 mov	 BYTE PTR ?Running@@3_NA, 0
$LN13@WinMain:

; 263  : 					}
; 264  : 
; 265  : 					TranslateMessage(&Message);

  0017b	48 8d 8c 24 f0
	00 00 00	 lea	 rcx, QWORD PTR Message$9[rsp]
  00183	ff 15 00 00 00
	00		 call	 QWORD PTR __imp_TranslateMessage

; 266  : 					DispatchMessageA(&Message);

  00189	48 8d 8c 24 f0
	00 00 00	 lea	 rcx, QWORD PTR Message$9[rsp]
  00191	ff 15 00 00 00
	00		 call	 QWORD PTR __imp_DispatchMessageA

; 267  : 				}

  00197	eb af		 jmp	 SHORT $LN4@WinMain
$LN5@WinMain:

; 268  : 				//todo: should we poll this more frequently?
; 269  : 
; 270  : 				DWORD dwResult;    
; 271  : 				for (DWORD i=0; i< XUSER_MAX_COUNT; i++ )

  00199	c7 44 24 60 00
	00 00 00	 mov	 DWORD PTR i$1[rsp], 0
  001a1	eb 0a		 jmp	 SHORT $LN8@WinMain
$LN6@WinMain:
  001a3	8b 44 24 60	 mov	 eax, DWORD PTR i$1[rsp]
  001a7	ff c0		 inc	 eax
  001a9	89 44 24 60	 mov	 DWORD PTR i$1[rsp], eax
$LN8@WinMain:
  001ad	83 7c 24 60 04	 cmp	 DWORD PTR i$1[rsp], 4
  001b2	73 30		 jae	 SHORT $LN7@WinMain

; 272  : 				{
; 273  : 					XINPUT_STATE state;
; 274  : 					ZeroMemory( &state, sizeof(XINPUT_STATE) );

  001b4	41 b8 10 00 00
	00		 mov	 r8d, 16
  001ba	33 d2		 xor	 edx, edx
  001bc	48 8d 8c 24 c0
	01 00 00	 lea	 rcx, QWORD PTR state$12[rsp]
  001c4	e8 00 00 00 00	 call	 memset

; 275  : 
; 276  : 					// Simply get the state of the controller from XInput.
; 277  : 					dwResult = XInputGetState( i, &state );

  001c9	48 8d 94 24 c0
	01 00 00	 lea	 rdx, QWORD PTR state$12[rsp]
  001d1	8b 4c 24 60	 mov	 ecx, DWORD PTR i$1[rsp]
  001d5	ff 15 00 00 00
	00		 call	 QWORD PTR ?XInputGetState_@@3P6AKKPEAU_XINPUT_STATE@@@ZEA
  001db	89 84 24 80 00
	00 00		 mov	 DWORD PTR dwResult$6[rsp], eax

; 278  : 					if( dwResult == ERROR_SUCCESS )
; 279  : 					{
; 280  : 						// Controller is connected 
; 281  : 					}else{
; 282  : 						// Controller is not connected 
; 283  : 					}
; 284  : 				}

  001e2	eb bf		 jmp	 SHORT $LN6@WinMain
$LN7@WinMain:

; 285  : 
; 286  : 				RenderWeirdGradient(GlobalBackBuffer,BlueOffset,GreenOffset);

  001e4	48 8d 84 24 20
	01 00 00	 lea	 rax, QWORD PTR $T10[rsp]
  001ec	48 8d 0d 00 00
	00 00		 lea	 rcx, OFFSET FLAT:?GlobalBackBuffer@@3Uwin32_offscreen_buffer@@A
  001f3	48 8b f8	 mov	 rdi, rax
  001f6	48 8b f1	 mov	 rsi, rcx
  001f9	b9 48 00 00 00	 mov	 ecx, 72			; 00000048H
  001fe	f3 a4		 rep movsb
  00200	44 8b 44 24 68	 mov	 r8d, DWORD PTR GreenOffset$3[rsp]
  00205	8b 54 24 64	 mov	 edx, DWORD PTR BlueOffset$2[rsp]
  00209	48 8d 8c 24 20
	01 00 00	 lea	 rcx, QWORD PTR $T10[rsp]
  00211	e8 00 00 00 00	 call	 ?RenderWeirdGradient@@YAXUwin32_offscreen_buffer@@HH@Z ; RenderWeirdGradient

; 287  : 
; 288  : 				HDC DeviceContext = GetDC(Window);

  00216	48 8b 4c 24 78	 mov	 rcx, QWORD PTR Window$5[rsp]
  0021b	ff 15 00 00 00
	00		 call	 QWORD PTR __imp_GetDC
  00221	48 89 84 24 88
	00 00 00	 mov	 QWORD PTR DeviceContext$7[rsp], rax

; 289  : 				win32_window_dimension Dimension= Win32GetWindowDimension(Window);

  00229	48 8b 4c 24 78	 mov	 rcx, QWORD PTR Window$5[rsp]
  0022e	e8 00 00 00 00	 call	 ?Win32GetWindowDimension@@YA?AUwin32_window_dimension@@PEAUHWND__@@@Z ; Win32GetWindowDimension
  00233	48 89 84 24 90
	00 00 00	 mov	 QWORD PTR $T8[rsp], rax
  0023b	48 8b 84 24 90
	00 00 00	 mov	 rax, QWORD PTR $T8[rsp]
  00243	48 89 44 24 70	 mov	 QWORD PTR Dimension$4[rsp], rax

; 290  : 				Win32DisplayBufferInWindow(DeviceContext, Dimension.Width, Dimension.Height, GlobalBackBuffer, 0, 0,  Dimension.Width, Dimension.Height);

  00248	48 8d 84 24 70
	01 00 00	 lea	 rax, QWORD PTR $T11[rsp]
  00250	48 8d 0d 00 00
	00 00		 lea	 rcx, OFFSET FLAT:?GlobalBackBuffer@@3Uwin32_offscreen_buffer@@A
  00257	48 8b f8	 mov	 rdi, rax
  0025a	48 8b f1	 mov	 rsi, rcx
  0025d	b9 48 00 00 00	 mov	 ecx, 72			; 00000048H
  00262	f3 a4		 rep movsb
  00264	8b 44 24 74	 mov	 eax, DWORD PTR Dimension$4[rsp+4]
  00268	89 44 24 38	 mov	 DWORD PTR [rsp+56], eax
  0026c	8b 44 24 70	 mov	 eax, DWORD PTR Dimension$4[rsp]
  00270	89 44 24 30	 mov	 DWORD PTR [rsp+48], eax
  00274	c7 44 24 28 00
	00 00 00	 mov	 DWORD PTR [rsp+40], 0
  0027c	c7 44 24 20 00
	00 00 00	 mov	 DWORD PTR [rsp+32], 0
  00284	4c 8d 8c 24 70
	01 00 00	 lea	 r9, QWORD PTR $T11[rsp]
  0028c	44 8b 44 24 74	 mov	 r8d, DWORD PTR Dimension$4[rsp+4]
  00291	8b 54 24 70	 mov	 edx, DWORD PTR Dimension$4[rsp]
  00295	48 8b 8c 24 88
	00 00 00	 mov	 rcx, QWORD PTR DeviceContext$7[rsp]
  0029d	e8 00 00 00 00	 call	 ?Win32DisplayBufferInWindow@@YAXPEAUHDC__@@HHUwin32_offscreen_buffer@@HHHH@Z ; Win32DisplayBufferInWindow

; 291  : 				ReleaseDC(Window,DeviceContext);

  002a2	48 8b 94 24 88
	00 00 00	 mov	 rdx, QWORD PTR DeviceContext$7[rsp]
  002aa	48 8b 4c 24 78	 mov	 rcx, QWORD PTR Window$5[rsp]
  002af	ff 15 00 00 00
	00		 call	 QWORD PTR __imp_ReleaseDC

; 292  : 
; 293  : 				++BlueOffset;

  002b5	8b 44 24 64	 mov	 eax, DWORD PTR BlueOffset$2[rsp]
  002b9	ff c0		 inc	 eax
  002bb	89 44 24 64	 mov	 DWORD PTR BlueOffset$2[rsp], eax

; 294  : 				++GreenOffset;

  002bf	8b 44 24 68	 mov	 eax, DWORD PTR GreenOffset$3[rsp]
  002c3	ff c0		 inc	 eax
  002c5	89 44 24 68	 mov	 DWORD PTR GreenOffset$3[rsp], eax

; 295  : 			}

  002c9	e9 6b fe ff ff	 jmp	 $LN2@WinMain
$LN3@WinMain:
$LN11@WinMain:
$LN9@WinMain:

; 296  : 		}
; 297  : 		else
; 298  : 		{
; 299  : 			//todo: logging
; 300  : 		}
; 301  : 	}
; 302  : 	else
; 303  : 	{
; 304  : 		//todo: logging
; 305  : 	}
; 306  : 
; 307  : 	return (0);

  002ce	33 c0		 xor	 eax, eax

; 308  : }

  002d0	48 8b 8c 24 d0
	01 00 00	 mov	 rcx, QWORD PTR __$ArrayPad$[rsp]
  002d8	48 33 cc	 xor	 rcx, rsp
  002db	e8 00 00 00 00	 call	 __security_check_cookie
  002e0	48 81 c4 e8 01
	00 00		 add	 rsp, 488		; 000001e8H
  002e7	5f		 pop	 rdi
  002e8	5e		 pop	 rsi
  002e9	c3		 ret	 0
WinMain	ENDP
_TEXT	ENDS
END
